target datalayout = "e-m:e-p270:32:32-p271:32:32-p272:64:64-i64:64-i128:128-f80:128-n8:16:32:64-S128"
target triple = "x86_64-unknown-linux-gnu"

%"class.std::__shared_count" = type { ptr }
%"class.std::shared_ptr.8" = type { %"class.std::__shared_ptr.9" }
%"class.std::__shared_ptr.9" = type { ptr, %"class.std::__shared_count" }
%"class.OpenColorIO_v2_4dev::(anonymous namespace)::ECRendererBase" = type { %"class.OpenColorIO_v2_4dev::OpCPU", %"class.std::shared_ptr.8", %"class.std::shared_ptr.8", %"class.std::shared_ptr.8", float, float }
%"class.OpenColorIO_v2_4dev::OpCPU" = type { ptr }

@_ZN19OpenColorIO_v2_4dev2ECL12MIN_CONTRASTE = internal constant double 1.000000e-03, align 8

; Function Attrs: mustprogress nounwind uwtable
define linkonce_odr hidden noundef ptr @_ZNKSt12__shared_ptrIN19OpenColorIO_v2_4dev25DynamicPropertyDoubleImplELN9__gnu_cxx12_Lock_policyE2EE3getEv(ptr noundef nonnull align 8 dereferenceable(16) %this) #5 comdat align 2 {
entry:
  %this.addr = alloca ptr, align 8
  store ptr %this, ptr %this.addr, align 8
  %this1 = load ptr, ptr %this.addr, align 8
  %_M_ptr = getelementptr inbounds %"class.std::__shared_ptr.9", ptr %this1, i32 0, i32 0
  %0 = load ptr, ptr %_M_ptr, align 8
  ret ptr %0
}

; Function Attrs: mustprogress nounwind uwtable
define linkonce_odr hidden noundef ptr @_ZNKSt19__shared_ptr_accessIN19OpenColorIO_v2_4dev25DynamicPropertyDoubleImplELN9__gnu_cxx12_Lock_policyE2ELb0ELb0EE6_M_getEv(ptr noundef nonnull align 1 dereferenceable(1) %this) #5 comdat align 2 {
entry:
  %this.addr = alloca ptr, align 8
  store ptr %this, ptr %this.addr, align 8
  %this1 = load ptr, ptr %this.addr, align 8
  %call = call noundef ptr @_ZNKSt12__shared_ptrIN19OpenColorIO_v2_4dev25DynamicPropertyDoubleImplELN9__gnu_cxx12_Lock_policyE2EE3getEv(ptr noundef nonnull align 8 dereferenceable(16) %this1) #3
  ret ptr %call
}

; Function Attrs: mustprogress nounwind uwtable
define linkonce_odr noundef nonnull align 8 dereferenceable(8) ptr @_ZSt3maxIdERKT_S2_S2_(ptr noundef nonnull align 8 dereferenceable(8) %__a, ptr noundef nonnull align 8 dereferenceable(8) %__b) #5 comdat {
entry:
  %retval = alloca ptr, align 8
  %__a.addr = alloca ptr, align 8
  %__b.addr = alloca ptr, align 8
  store ptr %__a, ptr %__a.addr, align 8
  store ptr %__b, ptr %__b.addr, align 8
  %0 = load ptr, ptr %__a.addr, align 8
  %1 = load double, ptr %0, align 8
  %2 = load ptr, ptr %__b.addr, align 8
  %3 = load double, ptr %2, align 8
  %cmp = fcmp olt double %1, %3
  br i1 %cmp, label %if.then, label %if.end

if.then:                                          ; preds = %entry
  %4 = load ptr, ptr %__b.addr, align 8
  store ptr %4, ptr %retval, align 8
  br label %return

if.end:                                           ; preds = %entry
  %5 = load ptr, ptr %__a.addr, align 8
  store ptr %5, ptr %retval, align 8
  br label %return

return:                                           ; preds = %if.end, %if.then
  %6 = load ptr, ptr %retval, align 8
  ret ptr %6
}

; Function Attrs: mustprogress nounwind uwtable
define linkonce_odr hidden noundef ptr @_ZNKSt19__shared_ptr_accessIN19OpenColorIO_v2_4dev25DynamicPropertyDoubleImplELN9__gnu_cxx12_Lock_policyE2ELb0ELb0EEptEv(ptr noundef nonnull align 1 dereferenceable(1) %this) #5 comdat align 2 {
entry:
  %this.addr = alloca ptr, align 8
  store ptr %this, ptr %this.addr, align 8
  %this1 = load ptr, ptr %this.addr, align 8
  %call = call noundef ptr @_ZNKSt19__shared_ptr_accessIN19OpenColorIO_v2_4dev25DynamicPropertyDoubleImplELN9__gnu_cxx12_Lock_policyE2ELb0ELb0EE6_M_getEv(ptr noundef nonnull align 1 dereferenceable(1) %this1) #3
  ret ptr %call
}

; Function Attrs: mustprogress uwtable
define internal void @_ZNK19OpenColorIO_v2_4dev12_GLOBAL__N_124ECLogarithmicRevRenderer5applyEPKvPvl(ptr noundef nonnull align 8 dereferenceable(64) %this, ptr noundef %inImg, ptr noundef %outImg, i64 noundef %numPixels) unnamed_addr #6 align 2 {
entry:
  %this.addr = alloca ptr, align 8
  %inImg.addr = alloca ptr, align 8
  %outImg.addr = alloca ptr, align 8
  %numPixels.addr = alloca i64, align 8
  %exposureVal = alloca float, align 4
  %inv_contrastVal = alloca float, align 4
  %ref.tmp = alloca double, align 8
  %negOffsetVal = alloca float, align 4
  %in = alloca ptr, align 8
  %out = alloca ptr, align 8
  %idx = alloca i64, align 8
  store ptr %this, ptr %this.addr, align 8
  store ptr %inImg, ptr %inImg.addr, align 8
  store ptr %outImg, ptr %outImg.addr, align 8
  store i64 %numPixels, ptr %numPixels.addr, align 8
  %this1 = load ptr, ptr %this.addr, align 8
  %m_exposure = getelementptr inbounds %"class.OpenColorIO_v2_4dev::(anonymous namespace)::ECRendererBase", ptr %this1, i32 0, i32 1
  %call = call noundef ptr @_ZNKSt19__shared_ptr_accessIN19OpenColorIO_v2_4dev25DynamicPropertyDoubleImplELN9__gnu_cxx12_Lock_policyE2ELb0ELb0EEptEv(ptr noundef nonnull align 1 dereferenceable(1) %m_exposure) #3
  %vtable = load ptr, ptr %call, align 8
  %vfn = getelementptr inbounds ptr, ptr %vtable, i64 3
  %0 = load ptr, ptr %vfn, align 8
  %call2 = call noundef double %0(ptr noundef nonnull align 8 dereferenceable(32) %call)
  %conv = fptrunc double %call2 to float
  %m_logExposureStep = getelementptr inbounds %"class.OpenColorIO_v2_4dev::(anonymous namespace)::ECRendererBase", ptr %this1, i32 0, i32 5
  %1 = load float, ptr %m_logExposureStep, align 4
  %mul = fmul float %conv, %1
  store float %mul, ptr %exposureVal, align 4
  %m_contrast = getelementptr inbounds %"class.OpenColorIO_v2_4dev::(anonymous namespace)::ECRendererBase", ptr %this1, i32 0, i32 2
  %call3 = call noundef ptr @_ZNKSt19__shared_ptr_accessIN19OpenColorIO_v2_4dev25DynamicPropertyDoubleImplELN9__gnu_cxx12_Lock_policyE2ELb0ELb0EEptEv(ptr noundef nonnull align 1 dereferenceable(1) %m_contrast) #3
  %vtable4 = load ptr, ptr %call3, align 8
  %vfn5 = getelementptr inbounds ptr, ptr %vtable4, i64 3
  %2 = load ptr, ptr %vfn5, align 8
  %call6 = call noundef double %2(ptr noundef nonnull align 8 dereferenceable(32) %call3)
  %m_gamma = getelementptr inbounds %"class.OpenColorIO_v2_4dev::(anonymous namespace)::ECRendererBase", ptr %this1, i32 0, i32 3
  %call7 = call noundef ptr @_ZNKSt19__shared_ptr_accessIN19OpenColorIO_v2_4dev25DynamicPropertyDoubleImplELN9__gnu_cxx12_Lock_policyE2ELb0ELb0EEptEv(ptr noundef nonnull align 1 dereferenceable(1) %m_gamma) #3
  %vtable8 = load ptr, ptr %call7, align 8
  %vfn9 = getelementptr inbounds ptr, ptr %vtable8, i64 3
  %3 = load ptr, ptr %vfn9, align 8
  %call10 = call noundef double %3(ptr noundef nonnull align 8 dereferenceable(32) %call7)
  %mul11 = fmul double %call6, %call10
  %div = fdiv double 1.000000e+00, %mul11
  store double %div, ptr %ref.tmp, align 8
  %call12 = call noundef nonnull align 8 dereferenceable(8) ptr @_ZSt3maxIdERKT_S2_S2_(ptr noundef nonnull align 8 dereferenceable(8) @_ZN19OpenColorIO_v2_4dev2ECL12MIN_CONTRASTE, ptr noundef nonnull align 8 dereferenceable(8) %ref.tmp)
  %4 = load double, ptr %call12, align 8
  %conv13 = fptrunc double %4 to float
  store float %conv13, ptr %inv_contrastVal, align 4
  %m_pivot = getelementptr inbounds %"class.OpenColorIO_v2_4dev::(anonymous namespace)::ECRendererBase", ptr %this1, i32 0, i32 4
  %5 = load float, ptr %m_pivot, align 8
  %m_pivot14 = getelementptr inbounds %"class.OpenColorIO_v2_4dev::(anonymous namespace)::ECRendererBase", ptr %this1, i32 0, i32 4
  %6 = load float, ptr %m_pivot14, align 8
  %7 = load float, ptr %inv_contrastVal, align 4
  %neg = fneg float %6
  %8 = call float @llvm.fmuladd.f32(float %neg, float %7, float %5)
  %9 = load float, ptr %exposureVal, align 4
  %sub = fsub float %8, %9
  store float %sub, ptr %negOffsetVal, align 4
  %10 = load ptr, ptr %inImg.addr, align 8
  store ptr %10, ptr %in, align 8
  %11 = load ptr, ptr %outImg.addr, align 8
  store ptr %11, ptr %out, align 8
  store i64 0, ptr %idx, align 8
  br label %for.cond

for.cond:                                         ; preds = %for.inc, %entry
  %12 = load i64, ptr %idx, align 8
  %13 = load i64, ptr %numPixels.addr, align 8
  %cmp = icmp slt i64 %12, %13
  br i1 %cmp, label %for.body, label %for.end

for.body:                                         ; preds = %for.cond
  %14 = load ptr, ptr %in, align 8
  %arrayidx = getelementptr inbounds float, ptr %14, i64 0
  %15 = load float, ptr %arrayidx, align 4
  %16 = load float, ptr %inv_contrastVal, align 4
  %17 = load float, ptr %negOffsetVal, align 4
  %18 = call float @llvm.fmuladd.f32(float %15, float %16, float %17)
  %19 = load ptr, ptr %out, align 8
  %arrayidx17 = getelementptr inbounds float, ptr %19, i64 0
  store float %18, ptr %arrayidx17, align 4
  %20 = load ptr, ptr %in, align 8
  %arrayidx18 = getelementptr inbounds float, ptr %20, i64 1
  %21 = load float, ptr %arrayidx18, align 4
  %22 = load float, ptr %inv_contrastVal, align 4
  %23 = load float, ptr %negOffsetVal, align 4
  %24 = call float @llvm.fmuladd.f32(float %21, float %22, float %23)
  %25 = load ptr, ptr %out, align 8
  %arrayidx20 = getelementptr inbounds float, ptr %25, i64 1
  store float %24, ptr %arrayidx20, align 4
  %26 = load ptr, ptr %in, align 8
  %arrayidx21 = getelementptr inbounds float, ptr %26, i64 2
  %27 = load float, ptr %arrayidx21, align 4
  %28 = load float, ptr %inv_contrastVal, align 4
  %29 = load float, ptr %negOffsetVal, align 4
  %30 = call float @llvm.fmuladd.f32(float %27, float %28, float %29)
  %31 = load ptr, ptr %out, align 8
  %arrayidx23 = getelementptr inbounds float, ptr %31, i64 2
  store float %30, ptr %arrayidx23, align 4
  %32 = load ptr, ptr %in, align 8
  %arrayidx24 = getelementptr inbounds float, ptr %32, i64 3
  %33 = load float, ptr %arrayidx24, align 4
  %34 = load ptr, ptr %out, align 8
  %arrayidx25 = getelementptr inbounds float, ptr %34, i64 3
  store float %33, ptr %arrayidx25, align 4
  %35 = load ptr, ptr %in, align 8
  %add.ptr = getelementptr inbounds float, ptr %35, i64 4
  store ptr %add.ptr, ptr %in, align 8
  %36 = load ptr, ptr %out, align 8
  %add.ptr26 = getelementptr inbounds float, ptr %36, i64 4
  store ptr %add.ptr26, ptr %out, align 8
  br label %for.inc

for.inc:                                          ; preds = %for.body
  %37 = load i64, ptr %idx, align 8
  %inc = add nsw i64 %37, 1
  store i64 %inc, ptr %idx, align 8
  br label %for.cond, !llvm.loop !14

for.end:                                          ; preds = %for.cond
  ret void
}