; Function Attrs: mustprogress uwtable
define internal void @_ZNK19OpenColorIO_v2_4dev12_GLOBAL__N_124ECLogarithmicRevRenderer5applyEPKvPvl(ptr nocapture noundef nonnull readonly align 8 dereferenceable(64) %this, ptr nocapture noundef readonly %inImg, ptr nocapture noundef writeonly %outImg, i64 noundef %numPixels) unnamed_addr #3 align 2 {
entry:
  %m_exposure = getelementptr inbounds i8, ptr %this, i64 8
  %0 = load ptr, ptr %m_exposure, align 8
  %vtable = load ptr, ptr %0, align 8
  %vfn = getelementptr inbounds i8, ptr %vtable, i64 24
  %1 = load ptr, ptr %vfn, align 8
  %call2 = tail call noundef double %1(ptr noundef nonnull align 8 dereferenceable(32) %0)
  %conv = fptrunc double %call2 to float
  %m_logExposureStep = getelementptr inbounds i8, ptr %this, i64 60
  %2 = load float, ptr %m_logExposureStep, align 4
  %mul = fmul float %2, %conv
  %m_contrast = getelementptr inbounds i8, ptr %this, i64 24
  %3 = load ptr, ptr %m_contrast, align 8
  %vtable4 = load ptr, ptr %3, align 8
  %vfn5 = getelementptr inbounds i8, ptr %vtable4, i64 24
  %4 = load ptr, ptr %vfn5, align 8
  %call6 = tail call noundef double %4(ptr noundef nonnull align 8 dereferenceable(32) %3)
  %m_gamma = getelementptr inbounds i8, ptr %this, i64 40
  %5 = load ptr, ptr %m_gamma, align 8
  %vtable8 = load ptr, ptr %5, align 8
  %vfn9 = getelementptr inbounds i8, ptr %vtable8, i64 24
  %6 = load ptr, ptr %vfn9, align 8
  %call10 = tail call noundef double %6(ptr noundef nonnull align 8 dereferenceable(32) %5)
  %mul11 = fmul double %call6, %call10
  %div = fdiv double 1.000000e+00, %mul11
  %cmp.i = fcmp ogt double %div, 1.000000e-03
  %.sroa.speculated = select i1 %cmp.i, double %div, double 1.000000e-03
  %conv13 = fptrunc double %.sroa.speculated to float
  %m_pivot = getelementptr inbounds i8, ptr %this, i64 56
  %7 = load float, ptr %m_pivot, align 8
  %neg = fneg float %7
  %8 = tail call float @llvm.fmuladd.f32(float %neg, float %conv13, float %7)
  %sub = fsub float %8, %mul
  %cmp15 = icmp sgt i64 %numPixels, 0
  br i1 %cmp15, label %for.body, label %for.end

for.body:                                         ; preds = %entry, %for.body
  %idx.018 = phi i64 [ %inc, %for.body ], [ 0, %entry ]
  %out.017 = phi ptr [ %add.ptr26, %for.body ], [ %outImg, %entry ]
  %in.016 = phi ptr [ %add.ptr, %for.body ], [ %inImg, %entry ]
  %9 = load float, ptr %in.016, align 4
  %10 = tail call float @llvm.fmuladd.f32(float %9, float %conv13, float %sub)
  store float %10, ptr %out.017, align 4
  %arrayidx18 = getelementptr inbounds i8, ptr %in.016, i64 4
  %11 = load float, ptr %arrayidx18, align 4
  %12 = tail call float @llvm.fmuladd.f32(float %11, float %conv13, float %sub)
  %arrayidx20 = getelementptr inbounds i8, ptr %out.017, i64 4
  store float %12, ptr %arrayidx20, align 4
  %arrayidx21 = getelementptr inbounds i8, ptr %in.016, i64 8
  %13 = load float, ptr %arrayidx21, align 4
  %14 = tail call float @llvm.fmuladd.f32(float %13, float %conv13, float %sub)
  %arrayidx23 = getelementptr inbounds i8, ptr %out.017, i64 8
  store float %14, ptr %arrayidx23, align 4
  %arrayidx24 = getelementptr inbounds i8, ptr %in.016, i64 12
  %15 = load float, ptr %arrayidx24, align 4
  %arrayidx25 = getelementptr inbounds i8, ptr %out.017, i64 12
  store float %15, ptr %arrayidx25, align 4
  %add.ptr = getelementptr inbounds i8, ptr %in.016, i64 16
  %add.ptr26 = getelementptr inbounds i8, ptr %out.017, i64 16
  %inc = add nuw nsw i64 %idx.018, 1
  %exitcond.not = icmp eq i64 %inc, %numPixels
  br i1 %exitcond.not, label %for.end, label %for.body, !llvm.loop !41

for.end:                                          ; preds = %for.body, %entry
  ret void
}